target datalayout = "e-m:e-p270:32:32-p271:32:32-p272:64:64-i64:64-i128:128-f80:128-n8:16:32:64-S128"
target triple = "x86_64-pc-linux-gnu"

%struct.strbuf = type { i64, i64, ptr }
%struct.repository = type { ptr, ptr, ptr, ptr, ptr, %struct.strmap, %struct.strmap, %struct.repo_path_cache, ptr, ptr, ptr, ptr, %struct.repo_settings, ptr, ptr, ptr, ptr, ptr, ptr, i32, i32, i32, ptr, ptr, i32, i32, i8 }
%struct.strmap = type { %struct.hashmap, ptr, i8 }
%struct.hashmap = type { ptr, ptr, ptr, i32, i32, i32, i32, i8 }
%struct.repo_path_cache = type { ptr, ptr, ptr, ptr, ptr, ptr, ptr }
%struct.repo_settings = type { i32, i32, i32, i32, i32, i32, i32, i32, i32, i32, i32, i32, ptr, i32, i32, i32, i32, i32, i32, i32, i64, i64, i64 }
%struct.parsed_object_pool = type { ptr, ptr, i32, i32, ptr, ptr, ptr, ptr, ptr, ptr, i32, i32, i32, ptr, ptr, i32, i32, ptr }
%struct.object_id = type { [32 x i8], i32 }
%struct.shallow_lock = type { %struct.lock_file }
%struct.lock_file = type { ptr }
%struct.write_shallow_data = type { ptr, i32, i32, i32 }
%struct.oid_array = type { ptr, i64, i64, i32 }

@.str = private unnamed_addr constant [10 x i8] c"shallow.c\00", align 1
@the_repository = external global ptr, align 8
@.str.8 = private unnamed_addr constant [22 x i8] c"failed to write to %s\00", align 1
@__const.prune_shallow.sb = private unnamed_addr constant %struct.strbuf { i64 0, i64 0, ptr @strbuf_slopbuf }, align 8
@.str.16 = private unnamed_addr constant [35 x i8] c"shallow must be initialized by now\00", align 1
@.str.17 = private unnamed_addr constant [42 x i8] c"shallow file has changed since we read it\00", align 1

; Function Attrs: inlinehint nounwind uwtable
define internal i64 @strbuf_avail(ptr noundef %0) #3 {
  %2 = alloca ptr, align 8
  store ptr %0, ptr %2, align 8, !tbaa !105
  %3 = load ptr, ptr %2, align 8, !tbaa !105
  %4 = getelementptr inbounds nuw %struct.strbuf, ptr %3, i32 0, i32 0
  %5 = load i64, ptr %4, align 8, !tbaa !192
  %6 = icmp ne i64 %5, 0
  br i1 %6, label %7, label %16

7:                                                ; preds = %1
  %8 = load ptr, ptr %2, align 8, !tbaa !105
  %9 = getelementptr inbounds nuw %struct.strbuf, ptr %8, i32 0, i32 0
  %10 = load i64, ptr %9, align 8, !tbaa !192
  %11 = load ptr, ptr %2, align 8, !tbaa !105
  %12 = getelementptr inbounds nuw %struct.strbuf, ptr %11, i32 0, i32 1
  %13 = load i64, ptr %12, align 8, !tbaa !126
  %14 = sub i64 %10, %13
  %15 = sub i64 %14, 1
  br label %17

16:                                               ; preds = %1
  br label %17

17:                                               ; preds = %16, %7
  %18 = phi i64 [ %15, %7 ], [ 0, %16 ]
  ret i64 %18
}

; Function Attrs: inlinehint nounwind uwtable
define internal i32 @rollback_lock_file(ptr noundef %0) #3 {
  %2 = alloca ptr, align 8
  store ptr %0, ptr %2, align 8, !tbaa !65
  %3 = load ptr, ptr %2, align 8, !tbaa !65
  %4 = getelementptr inbounds nuw %struct.lock_file, ptr %3, i32 0, i32 0
  %5 = call i32 @delete_tempfile(ptr noundef %4)
  ret i32 %5
}

; Function Attrs: nounwind uwtable
define internal void @reset_repository_shallow(ptr noundef %0) #0 {
  %2 = alloca ptr, align 8
  store ptr %0, ptr %2, align 8, !tbaa !4
  %3 = load ptr, ptr %2, align 8, !tbaa !4
  %4 = getelementptr inbounds nuw %struct.repository, ptr %3, i32 0, i32 3
  %5 = load ptr, ptr %4, align 8, !tbaa !13
  %6 = getelementptr inbounds nuw %struct.parsed_object_pool, ptr %5, i32 0, i32 12
  store i32 -1, ptr %6, align 8, !tbaa !32
  %7 = load ptr, ptr %2, align 8, !tbaa !4
  %8 = getelementptr inbounds nuw %struct.repository, ptr %7, i32 0, i32 3
  %9 = load ptr, ptr %8, align 8, !tbaa !13
  %10 = getelementptr inbounds nuw %struct.parsed_object_pool, ptr %9, i32 0, i32 13
  %11 = load ptr, ptr %10, align 8, !tbaa !60
  call void @stat_validity_clear(ptr noundef %11)
  %12 = load ptr, ptr %2, align 8, !tbaa !4
  %13 = getelementptr inbounds nuw %struct.repository, ptr %12, i32 0, i32 3
  %14 = load ptr, ptr %13, align 8, !tbaa !13
  call void @parsed_object_pool_reset_commit_grafts(ptr noundef %14)
  ret void
}

; Function Attrs: inlinehint nounwind uwtable
define internal i32 @hold_lock_file_for_update_timeout(ptr noundef %0, ptr noundef %1, i32 noundef %2, i64 noundef %3) #3 {
  %5 = alloca ptr, align 8
  %6 = alloca ptr, align 8
  %7 = alloca i32, align 4
  %8 = alloca i64, align 8
  store ptr %0, ptr %5, align 8, !tbaa !65
  store ptr %1, ptr %6, align 8, !tbaa !9
  store i32 %2, ptr %7, align 4, !tbaa !11
  store i64 %3, ptr %8, align 8, !tbaa !56
  %9 = load ptr, ptr %5, align 8, !tbaa !65
  %10 = load ptr, ptr %6, align 8, !tbaa !9
  %11 = load i32, ptr %7, align 4, !tbaa !11
  %12 = load i64, ptr %8, align 8, !tbaa !56
  %13 = call i32 @hold_lock_file_for_update_timeout_mode(ptr noundef %9, ptr noundef %10, i32 noundef %11, i64 noundef %12, i32 noundef 438)
  ret i32 %13
}

; Function Attrs: inlinehint nounwind uwtable
define internal void @strbuf_addch(ptr noundef %0, i32 noundef %1) #3 {
  %3 = alloca ptr, align 8
  %4 = alloca i32, align 4
  store ptr %0, ptr %3, align 8, !tbaa !105
  store i32 %1, ptr %4, align 4, !tbaa !11
  %5 = load ptr, ptr %3, align 8, !tbaa !105
  %6 = call i64 @strbuf_avail(ptr noundef %5)
  %7 = icmp ne i64 %6, 0
  br i1 %7, label %10, label %8

8:                                                ; preds = %2
  %9 = load ptr, ptr %3, align 8, !tbaa !105
  call void @strbuf_grow(ptr noundef %9, i64 noundef 1)
  br label %10

10:                                               ; preds = %8, %2
  %11 = load i32, ptr %4, align 4, !tbaa !11
  %12 = trunc i32 %11 to i8
  %13 = load ptr, ptr %3, align 8, !tbaa !105
  %14 = getelementptr inbounds nuw %struct.strbuf, ptr %13, i32 0, i32 2
  %15 = load ptr, ptr %14, align 8, !tbaa !125
  %16 = load ptr, ptr %3, align 8, !tbaa !105
  %17 = getelementptr inbounds nuw %struct.strbuf, ptr %16, i32 0, i32 1
  %18 = load i64, ptr %17, align 8, !tbaa !126
  %19 = add i64 %18, 1
  store i64 %19, ptr %17, align 8, !tbaa !126
  %20 = getelementptr inbounds nuw i8, ptr %15, i64 %18
  store i8 %12, ptr %20, align 1, !tbaa !57
  %21 = load ptr, ptr %3, align 8, !tbaa !105
  %22 = getelementptr inbounds nuw %struct.strbuf, ptr %21, i32 0, i32 2
  %23 = load ptr, ptr %22, align 8, !tbaa !125
  %24 = load ptr, ptr %3, align 8, !tbaa !105
  %25 = getelementptr inbounds nuw %struct.strbuf, ptr %24, i32 0, i32 1
  %26 = load i64, ptr %25, align 8, !tbaa !126
  %27 = getelementptr inbounds nuw i8, ptr %23, i64 %26
  store i8 0, ptr %27, align 1, !tbaa !57
  ret void
}

; Function Attrs: inlinehint nounwind uwtable
define internal void @strbuf_addstr(ptr noundef %0, ptr noundef %1) #3 {
  %3 = alloca ptr, align 8
  %4 = alloca ptr, align 8
  store ptr %0, ptr %3, align 8, !tbaa !105
  store ptr %1, ptr %4, align 8, !tbaa !9
  %5 = load ptr, ptr %3, align 8, !tbaa !105
  %6 = load ptr, ptr %4, align 8, !tbaa !9
  %7 = load ptr, ptr %4, align 8, !tbaa !9
  %8 = call i64 @strlen(ptr noundef %7) #13
  call void @strbuf_add(ptr noundef %5, ptr noundef %6, i64 noundef %8)
  ret void
}

; Function Attrs: nounwind uwtable
define dso_local void @rollback_shallow_file(ptr noundef %0, ptr noundef %1) #0 {
  %3 = alloca ptr, align 8
  %4 = alloca ptr, align 8
  store ptr %0, ptr %3, align 8, !tbaa !4
  store ptr %1, ptr %4, align 8, !tbaa !63
  %5 = load ptr, ptr %4, align 8, !tbaa !63
  %6 = getelementptr inbounds nuw %struct.shallow_lock, ptr %5, i32 0, i32 0
  %7 = call i32 @rollback_lock_file(ptr noundef %6)
  %8 = load ptr, ptr %3, align 8, !tbaa !4
  call void @reset_repository_shallow(ptr noundef %8)
  ret void
}

; Function Attrs: nounwind uwtable
define dso_local i32 @commit_shallow_file(ptr noundef %0, ptr noundef %1) #0 {
  %3 = alloca ptr, align 8
  %4 = alloca ptr, align 8
  %5 = alloca i32, align 4
  store ptr %0, ptr %3, align 8, !tbaa !4
  store ptr %1, ptr %4, align 8, !tbaa !63
  call void @llvm.lifetime.start.p0(i64 4, ptr %5) #12
  %6 = load ptr, ptr %4, align 8, !tbaa !63
  %7 = getelementptr inbounds nuw %struct.shallow_lock, ptr %6, i32 0, i32 0
  %8 = call i32 @commit_lock_file(ptr noundef %7)
  store i32 %8, ptr %5, align 4, !tbaa !11
  %9 = load ptr, ptr %3, align 8, !tbaa !4
  call void @reset_repository_shallow(ptr noundef %9)
  %10 = load ptr, ptr %3, align 8, !tbaa !4
  %11 = call i32 @is_repository_shallow(ptr noundef %10)
  %12 = load i32, ptr %5, align 4, !tbaa !11
  call void @llvm.lifetime.end.p0(i64 4, ptr %5) #12
  ret i32 %12
}

; Function Attrs: nounwind uwtable
define internal void @check_shallow_file_for_update(ptr noundef %0) #0 {
  %2 = alloca ptr, align 8
  store ptr %0, ptr %2, align 8, !tbaa !4
  %3 = load ptr, ptr %2, align 8, !tbaa !4
  %4 = getelementptr inbounds nuw %struct.repository, ptr %3, i32 0, i32 3
  %5 = load ptr, ptr %4, align 8, !tbaa !13
  %6 = getelementptr inbounds nuw %struct.parsed_object_pool, ptr %5, i32 0, i32 12
  %7 = load i32, ptr %6, align 8, !tbaa !32
  %8 = icmp eq i32 %7, -1
  br i1 %8, label %9, label %10

9:                                                ; preds = %1
  call void (ptr, i32, ptr, ...) @BUG_fl(ptr noundef @.str, i32 noundef 288, ptr noundef @.str.16) #11
  unreachable

10:                                               ; preds = %1
  %11 = load ptr, ptr %2, align 8, !tbaa !4
  %12 = getelementptr inbounds nuw %struct.repository, ptr %11, i32 0, i32 3
  %13 = load ptr, ptr %12, align 8, !tbaa !13
  %14 = getelementptr inbounds nuw %struct.parsed_object_pool, ptr %13, i32 0, i32 13
  %15 = load ptr, ptr %14, align 8, !tbaa !60
  %16 = load ptr, ptr %2, align 8, !tbaa !4
  %17 = call ptr @git_path_shallow(ptr noundef %16)
  %18 = call i32 @stat_validity_check(ptr noundef %15, ptr noundef %17)
  %19 = icmp ne i32 %18, 0
  br i1 %19, label %21, label %20

20:                                               ; preds = %10
  call void (ptr, ...) @die(ptr noundef @.str.17) #11
  unreachable

21:                                               ; preds = %10
  ret void
}

; Function Attrs: inlinehint nounwind uwtable
define internal i32 @hold_lock_file_for_update(ptr noundef %0, ptr noundef %1, i32 noundef %2) #3 {
  %4 = alloca ptr, align 8
  %5 = alloca ptr, align 8
  %6 = alloca i32, align 4
  store ptr %0, ptr %4, align 8, !tbaa !65
  store ptr %1, ptr %5, align 8, !tbaa !9
  store i32 %2, ptr %6, align 4, !tbaa !11
  %7 = load ptr, ptr %4, align 8, !tbaa !65
  %8 = load ptr, ptr %5, align 8, !tbaa !9
  %9 = load i32, ptr %6, align 4, !tbaa !11
  %10 = call i32 @hold_lock_file_for_update_timeout(ptr noundef %7, ptr noundef %8, i32 noundef %9, i64 noundef 0)
  ret i32 %10
}

; Function Attrs: nounwind uwtable
define internal i32 @write_shallow_commits_1(ptr noundef %0, i32 noundef %1, ptr noundef %2, i32 noundef %3) #0 {
  %5 = alloca i32, align 4
  %6 = alloca ptr, align 8
  %7 = alloca i32, align 4
  %8 = alloca ptr, align 8
  %9 = alloca i32, align 4
  %10 = alloca %struct.write_shallow_data, align 8
  %11 = alloca i32, align 4
  %12 = alloca i64, align 8
  store ptr %0, ptr %6, align 8, !tbaa !105
  store i32 %1, ptr %7, align 4, !tbaa !11
  store ptr %2, ptr %8, align 8, !tbaa !107
  store i32 %3, ptr %9, align 4, !tbaa !11
  call void @llvm.lifetime.start.p0(i64 24, ptr %10) #12
  %13 = getelementptr inbounds nuw %struct.write_shallow_data, ptr %10, i32 0, i32 0
  %14 = load ptr, ptr %6, align 8, !tbaa !105
  store ptr %14, ptr %13, align 8, !tbaa !109
  %15 = getelementptr inbounds nuw %struct.write_shallow_data, ptr %10, i32 0, i32 1
  %16 = load i32, ptr %7, align 4, !tbaa !11
  store i32 %16, ptr %15, align 8, !tbaa !111
  %17 = getelementptr inbounds nuw %struct.write_shallow_data, ptr %10, i32 0, i32 2
  store i32 0, ptr %17, align 4, !tbaa !112
  %18 = getelementptr inbounds nuw %struct.write_shallow_data, ptr %10, i32 0, i32 3
  %19 = load i32, ptr %9, align 4, !tbaa !11
  store i32 %19, ptr %18, align 8, !tbaa !113
  %20 = getelementptr i8, ptr %10, i64 20
  call void @llvm.memset.p0.i64(ptr align 4 %20, i8 0, i64 4, i1 false)
  %21 = call i32 @for_each_commit_graft(ptr noundef @write_one_shallow, ptr noundef %10)
  %22 = load ptr, ptr %8, align 8, !tbaa !107
  %23 = icmp ne ptr %22, null
  br i1 %23, label %27, label %24

24:                                               ; preds = %4
  %25 = getelementptr inbounds nuw %struct.write_shallow_data, ptr %10, i32 0, i32 2
  %26 = load i32, ptr %25, align 4, !tbaa !112
  store i32 %26, ptr %5, align 4
  store i32 1, ptr %11, align 4
  br label %53

27:                                               ; preds = %4
  call void @llvm.lifetime.start.p0(i64 8, ptr %12) #12
  store i64 0, ptr %12, align 8, !tbaa !56
  br label %28

28:                                               ; preds = %47, %27
  %29 = load i64, ptr %12, align 8, !tbaa !56
  %30 = load ptr, ptr %8, align 8, !tbaa !107
  %31 = getelementptr inbounds nuw %struct.oid_array, ptr %30, i32 0, i32 1
  %32 = load i64, ptr %31, align 8, !tbaa !114
  %33 = icmp ult i64 %29, %32
  br i1 %33, label %35, label %34

34:                                               ; preds = %28
  store i32 2, ptr %11, align 4
  call void @llvm.lifetime.end.p0(i64 8, ptr %12) #12
  br label %50

35:                                               ; preds = %28
  %36 = load ptr, ptr %6, align 8, !tbaa !105
  %37 = load ptr, ptr %8, align 8, !tbaa !107
  %38 = getelementptr inbounds nuw %struct.oid_array, ptr %37, i32 0, i32 0
  %39 = load ptr, ptr %38, align 8, !tbaa !116
  %40 = load i64, ptr %12, align 8, !tbaa !56
  %41 = getelementptr inbounds nuw %struct.object_id, ptr %39, i64 %40
  %42 = call ptr @oid_to_hex(ptr noundef %41)
  call void @strbuf_addstr(ptr noundef %36, ptr noundef %42)
  %43 = load ptr, ptr %6, align 8, !tbaa !105
  call void @strbuf_addch(ptr noundef %43, i32 noundef 10)
  %44 = getelementptr inbounds nuw %struct.write_shallow_data, ptr %10, i32 0, i32 2
  %45 = load i32, ptr %44, align 4, !tbaa !112
  %46 = add nsw i32 %45, 1
  store i32 %46, ptr %44, align 4, !tbaa !112
  br label %47

47:                                               ; preds = %35
  %48 = load i64, ptr %12, align 8, !tbaa !56
  %49 = add i64 %48, 1
  store i64 %49, ptr %12, align 8, !tbaa !56
  br label %28, !llvm.loop !117

50:                                               ; preds = %34
  %51 = getelementptr inbounds nuw %struct.write_shallow_data, ptr %10, i32 0, i32 2
  %52 = load i32, ptr %51, align 4, !tbaa !112
  store i32 %52, ptr %5, align 4
  store i32 1, ptr %11, align 4
  br label %53

53:                                               ; preds = %50, %24
  call void @llvm.lifetime.end.p0(i64 24, ptr %10) #12
  %54 = load i32, ptr %5, align 4
  ret i32 %54
}

; Function Attrs: nounwind uwtable
define dso_local void @prune_shallow(i32 noundef %0) #0 {
  %2 = alloca i32, align 4
  %3 = alloca %struct.shallow_lock, align 8
  %4 = alloca %struct.strbuf, align 8
  %5 = alloca i32, align 4
  %6 = alloca i32, align 4
  %7 = alloca i32, align 4
  store i32 %0, ptr %2, align 4, !tbaa !11
  call void @llvm.lifetime.start.p0(i64 8, ptr %3) #12
  call void @llvm.memset.p0.i64(ptr align 8 %3, i8 0, i64 8, i1 false)
  call void @llvm.lifetime.start.p0(i64 24, ptr %4) #12
  call void @llvm.memcpy.p0.p0.i64(ptr align 8 %4, ptr align 8 @__const.prune_shallow.sb, i64 24, i1 false)
  call void @llvm.lifetime.start.p0(i64 4, ptr %5) #12
  store i32 1, ptr %5, align 4, !tbaa !11
  call void @llvm.lifetime.start.p0(i64 4, ptr %6) #12
  %8 = load i32, ptr %2, align 4, !tbaa !11
  %9 = and i32 %8, 2
  %10 = icmp ne i32 %9, 0
  br i1 %10, label %11, label %14

11:                                               ; preds = %1
  %12 = load i32, ptr %5, align 4, !tbaa !11
  %13 = or i32 %12, 4
  store i32 %13, ptr %5, align 4, !tbaa !11
  br label %14

14:                                               ; preds = %11, %1
  %15 = load i32, ptr %2, align 4, !tbaa !11
  %16 = and i32 %15, 1
  %17 = icmp ne i32 %16, 0
  br i1 %17, label %18, label %23

18:                                               ; preds = %14
  %19 = load i32, ptr %5, align 4, !tbaa !11
  %20 = or i32 %19, 2
  store i32 %20, ptr %5, align 4, !tbaa !11
  %21 = load i32, ptr %5, align 4, !tbaa !11
  %22 = call i32 @write_shallow_commits_1(ptr noundef %4, i32 noundef 0, ptr noundef null, i32 noundef %21)
  call void @strbuf_release(ptr noundef %4)
  store i32 1, ptr %7, align 4
  br label %52

23:                                               ; preds = %14
  %24 = getelementptr inbounds nuw %struct.shallow_lock, ptr %3, i32 0, i32 0
  %25 = load ptr, ptr @the_repository, align 8, !tbaa !4
  %26 = call ptr @git_path_shallow(ptr noundef %25)
  %27 = call i32 @hold_lock_file_for_update(ptr noundef %24, ptr noundef %26, i32 noundef 1)
  store i32 %27, ptr %6, align 4, !tbaa !11
  %28 = load ptr, ptr @the_repository, align 8, !tbaa !4
  call void @check_shallow_file_for_update(ptr noundef %28)
  %29 = load i32, ptr %5, align 4, !tbaa !11
  %30 = call i32 @write_shallow_commits_1(ptr noundef %4, i32 noundef 0, ptr noundef null, i32 noundef %29)
  %31 = icmp ne i32 %30, 0
  br i1 %31, label %32, label %46

32:                                               ; preds = %23
  %33 = load i32, ptr %6, align 4, !tbaa !11
  %34 = getelementptr inbounds nuw %struct.strbuf, ptr %4, i32 0, i32 2
  %35 = load ptr, ptr %34, align 8, !tbaa !125
  %36 = getelementptr inbounds nuw %struct.strbuf, ptr %4, i32 0, i32 1
  %37 = load i64, ptr %36, align 8, !tbaa !126
  %38 = call i64 @write_in_full(i32 noundef %33, ptr noundef %35, i64 noundef %37)
  %39 = icmp slt i64 %38, 0
  br i1 %39, label %40, label %43

40:                                               ; preds = %32
  %41 = getelementptr inbounds nuw %struct.shallow_lock, ptr %3, i32 0, i32 0
  %42 = call ptr @get_lock_file_path(ptr noundef %41)
  call void (ptr, ...) @die_errno(ptr noundef @.str.8, ptr noundef %42) #11
  unreachable

43:                                               ; preds = %32
  %44 = load ptr, ptr @the_repository, align 8, !tbaa !4
  %45 = call i32 @commit_shallow_file(ptr noundef %44, ptr noundef %3)
  br label %51

46:                                               ; preds = %23
  %47 = load ptr, ptr @the_repository, align 8, !tbaa !4
  %48 = call ptr @git_path_shallow(ptr noundef %47)
  %49 = call i32 @unlink(ptr noundef %48) #12
  %50 = load ptr, ptr @the_repository, align 8, !tbaa !4
  call void @rollback_shallow_file(ptr noundef %50, ptr noundef %3)
  br label %51

51:                                               ; preds = %46, %43
  call void @strbuf_release(ptr noundef %4)
  store i32 0, ptr %7, align 4
  br label %52

52:                                               ; preds = %51, %18
  call void @llvm.lifetime.end.p0(i64 4, ptr %6) #12
  call void @llvm.lifetime.end.p0(i64 4, ptr %5) #12
  call void @llvm.lifetime.end.p0(i64 24, ptr %4) #12
  call void @llvm.lifetime.end.p0(i64 8, ptr %3) #12
  %53 = load i32, ptr %7, align 4
  switch i32 %53, label %55 [
    i32 0, label %54
    i32 1, label %54
  ]

54:                                               ; preds = %52, %52
  ret void

55:                                               ; preds = %52
  unreachable
}