; Function Attrs: nounwind uwtable
define dso_local void @prune_shallow(i32 noundef %0) local_unnamed_addr #0 {
  %2 = alloca %struct.write_shallow_data, align 8
  %3 = alloca %struct.write_shallow_data, align 8
  %4 = alloca %struct.shallow_lock, align 8
  %5 = alloca %struct.strbuf, align 8
  call void @llvm.lifetime.start.p0(i64 8, ptr nonnull %4) #15
  store i64 0, ptr %4, align 8
  call void @llvm.lifetime.start.p0(i64 24, ptr nonnull %5) #15
  call void @llvm.memcpy.p0.p0.i64(ptr noundef nonnull align 8 dereferenceable(24) %5, ptr noundef nonnull align 8 dereferenceable(24) @__const.prune_shallow.sb, i64 24, i1 false)
  %6 = and i32 %0, 2
  %.not = icmp eq i32 %6, 0
  %spec.select = select i1 %.not, i32 1, i32 5
  %7 = and i32 %0, 1
  %.not7 = icmp eq i32 %7, 0
  br i1 %.not7, label %15, label %8

8:                                                ; preds = %1
  %9 = or disjoint i32 %spec.select, 2
  call void @llvm.lifetime.start.p0(i64 24, ptr nonnull %3) #15
  store ptr %5, ptr %3, align 8, !tbaa !80
  %10 = getelementptr inbounds nuw i8, ptr %3, i64 8
  store i32 0, ptr %10, align 8, !tbaa !83
  %11 = getelementptr inbounds nuw i8, ptr %3, i64 12
  store i32 0, ptr %11, align 4, !tbaa !84
  %12 = getelementptr inbounds nuw i8, ptr %3, i64 16
  store i32 %9, ptr %12, align 8, !tbaa !85
  %13 = getelementptr inbounds nuw i8, ptr %3, i64 20
  store i32 0, ptr %13, align 4
  %14 = call i32 @for_each_commit_graft(ptr noundef nonnull @write_one_shallow, ptr noundef nonnull %3) #15
  call void @llvm.lifetime.end.p0(i64 24, ptr nonnull %3) #15
  br label %69

15:                                               ; preds = %1
  %16 = load ptr, ptr @the_repository, align 8, !tbaa !45
  %17 = tail call ptr @git_path_shallow(ptr noundef %16) #15
  %18 = call i32 @hold_lock_file_for_update_timeout_mode(ptr noundef nonnull %4, ptr noundef %17, i32 noundef 1, i64 noundef 0, i32 noundef 438) #15
  %19 = load ptr, ptr @the_repository, align 8, !tbaa !45
  %20 = getelementptr inbounds nuw i8, ptr %19, i64 24
  %21 = load ptr, ptr %20, align 8, !tbaa !4
  %22 = getelementptr inbounds nuw i8, ptr %21, i64 80
  %23 = load i32, ptr %22, align 8, !tbaa !28
  %24 = icmp eq i32 %23, -1
  br i1 %24, label %25, label %26

25:                                               ; preds = %15
  call void (ptr, i32, ptr, ...) @BUG_fl(ptr noundef nonnull @.str, i32 noundef 288, ptr noundef nonnull @.str.16) #14
  unreachable

26:                                               ; preds = %15
  %27 = getelementptr inbounds nuw i8, ptr %21, i64 88
  %28 = load ptr, ptr %27, align 8, !tbaa !51
  %29 = call ptr @git_path_shallow(ptr noundef nonnull %19) #15
  %30 = call i32 @stat_validity_check(ptr noundef %28, ptr noundef %29) #15
  %.not.i = icmp eq i32 %30, 0
  br i1 %.not.i, label %31, label %check_shallow_file_for_update.exit

31:                                               ; preds = %26
  call void (ptr, ...) @die(ptr noundef nonnull @.str.17) #14
  unreachable

check_shallow_file_for_update.exit:               ; preds = %26
  call void @llvm.lifetime.start.p0(i64 24, ptr nonnull %2) #15
  store ptr %5, ptr %2, align 8, !tbaa !80
  %32 = getelementptr inbounds nuw i8, ptr %2, i64 8
  store i32 0, ptr %32, align 8, !tbaa !83
  %33 = getelementptr inbounds nuw i8, ptr %2, i64 12
  store i32 0, ptr %33, align 4, !tbaa !84
  %34 = getelementptr inbounds nuw i8, ptr %2, i64 16
  store i32 %spec.select, ptr %34, align 8, !tbaa !85
  %35 = getelementptr inbounds nuw i8, ptr %2, i64 20
  store i32 0, ptr %35, align 4
  %36 = call i32 @for_each_commit_graft(ptr noundef nonnull @write_one_shallow, ptr noundef nonnull %2) #15
  %37 = load i32, ptr %33, align 4, !tbaa !84
  call void @llvm.lifetime.end.p0(i64 24, ptr nonnull %2) #15
  %.not8 = icmp eq i32 %37, 0
  br i1 %.not8, label %57, label %38

38:                                               ; preds = %check_shallow_file_for_update.exit
  %39 = getelementptr inbounds nuw i8, ptr %5, i64 16
  %40 = load ptr, ptr %39, align 8, !tbaa !93
  %41 = getelementptr inbounds nuw i8, ptr %5, i64 8
  %42 = load i64, ptr %41, align 8, !tbaa !92
  %43 = call i64 @write_in_full(i32 noundef %18, ptr noundef %40, i64 noundef %42) #15
  %44 = icmp slt i64 %43, 0
  br i1 %44, label %45, label %47

45:                                               ; preds = %38
  %.val = load ptr, ptr %4, align 8, !tbaa !100
  %46 = call fastcc ptr @get_lock_file_path(ptr %.val)
  call void (ptr, ...) @die_errno(ptr noundef nonnull @.str.8, ptr noundef %46) #14
  unreachable

47:                                               ; preds = %38
  %48 = load ptr, ptr @the_repository, align 8, !tbaa !45
  %49 = call i32 @commit_lock_file(ptr noundef nonnull %4) #15
  %50 = getelementptr inbounds nuw i8, ptr %48, i64 24
  %51 = load ptr, ptr %50, align 8, !tbaa !4
  %52 = getelementptr inbounds nuw i8, ptr %51, i64 80
  store i32 -1, ptr %52, align 8, !tbaa !28
  %53 = getelementptr inbounds nuw i8, ptr %51, i64 88
  %54 = load ptr, ptr %53, align 8, !tbaa !51
  call void @stat_validity_clear(ptr noundef %54) #15
  %55 = load ptr, ptr %50, align 8, !tbaa !4
  call void @parsed_object_pool_reset_commit_grafts(ptr noundef %55) #15
  %56 = call i32 @is_repository_shallow(ptr noundef %48)
  br label %69

57:                                               ; preds = %check_shallow_file_for_update.exit
  %58 = load ptr, ptr @the_repository, align 8, !tbaa !45
  %59 = call ptr @git_path_shallow(ptr noundef %58) #15
  %60 = call i32 @unlink(ptr noundef %59) #15
  %61 = load ptr, ptr @the_repository, align 8, !tbaa !45
  %62 = call i32 @delete_tempfile(ptr noundef nonnull %4) #15
  %63 = getelementptr inbounds nuw i8, ptr %61, i64 24
  %64 = load ptr, ptr %63, align 8, !tbaa !4
  %65 = getelementptr inbounds nuw i8, ptr %64, i64 80
  store i32 -1, ptr %65, align 8, !tbaa !28
  %66 = getelementptr inbounds nuw i8, ptr %64, i64 88
  %67 = load ptr, ptr %66, align 8, !tbaa !51
  call void @stat_validity_clear(ptr noundef %67) #15
  %68 = load ptr, ptr %63, align 8, !tbaa !4
  call void @parsed_object_pool_reset_commit_grafts(ptr noundef %68) #15
  br label %69

69:                                               ; preds = %47, %57, %8
  call void @strbuf_release(ptr noundef nonnull %5) #15
  call void @llvm.lifetime.end.p0(i64 24, ptr nonnull %5) #15
  call void @llvm.lifetime.end.p0(i64 8, ptr nonnull %4) #15
  ret void
}